target datalayout = "e-m:e-p270:32:32-p271:32:32-p272:64:64-i64:64-i128:128-f80:128-n8:16:32:64-S128"
target triple = "x86_64-pc-linux-gnu"

%struct.stat_data = type { %struct.cache_time, %struct.cache_time, i32, i32, i32, i32, i32 }
%struct.cache_time = type { i32, i32 }
%struct.object_id = type { [32 x i8], i32 }
%struct.untracked_cache_dir = type { ptr, ptr, %struct.stat_data, i32, i32, i32, i32, i8, %struct.object_id, [0 x i8] }
%struct.read_data = type { i32, ptr, ptr, ptr, ptr, ptr, ptr }

@.str.33 = private unnamed_addr constant [27 x i8] c"size_t overflow: %lu + %lu\00", align 1
@.str.34 = private unnamed_addr constant [27 x i8] c"size_t overflow: %lu * %lu\00", align 1

; Function Attrs: inlinehint nounwind uwtable
define internal i64 @st_add(i64 noundef %0, i64 noundef %1) #3 {
  %3 = alloca i64, align 8
  %4 = alloca i64, align 8
  store i64 %0, ptr %3, align 8, !tbaa !19
  store i64 %1, ptr %4, align 8, !tbaa !19
  %5 = load i64, ptr %4, align 8, !tbaa !19
  %6 = load i64, ptr %3, align 8, !tbaa !19
  %7 = sub i64 -1, %6
  %8 = icmp ugt i64 %5, %7
  br i1 %8, label %9, label %12

9:                                                ; preds = %2
  %10 = load i64, ptr %3, align 8, !tbaa !19
  %11 = load i64, ptr %4, align 8, !tbaa !19
  call void (ptr, ...) @die(ptr noundef @.str.33, i64 noundef %10, i64 noundef %11) #14
  unreachable

12:                                               ; preds = %2
  %13 = load i64, ptr %3, align 8, !tbaa !19
  %14 = load i64, ptr %4, align 8, !tbaa !19
  %15 = add i64 %13, %14
  ret i64 %15
}

; Function Attrs: inlinehint nounwind uwtable
define internal i64 @st_mult(i64 noundef %0, i64 noundef %1) #3 {
  %3 = alloca i64, align 8
  %4 = alloca i64, align 8
  store i64 %0, ptr %3, align 8, !tbaa !19
  store i64 %1, ptr %4, align 8, !tbaa !19
  %5 = load i64, ptr %3, align 8, !tbaa !19
  %6 = icmp ne i64 %5, 0
  br i1 %6, label %7, label %15

7:                                                ; preds = %2
  %8 = load i64, ptr %4, align 8, !tbaa !19
  %9 = load i64, ptr %3, align 8, !tbaa !19
  %10 = udiv i64 -1, %9
  %11 = icmp ugt i64 %8, %10
  br i1 %11, label %12, label %15

12:                                               ; preds = %7
  %13 = load i64, ptr %3, align 8, !tbaa !19
  %14 = load i64, ptr %4, align 8, !tbaa !19
  call void (ptr, ...) @die(ptr noundef @.str.34, i64 noundef %13, i64 noundef %14) #14
  unreachable

15:                                               ; preds = %7, %2
  %16 = load i64, ptr %3, align 8, !tbaa !19
  %17 = load i64, ptr %4, align 8, !tbaa !19
  %18 = mul i64 %16, %17
  ret i64 %18
}

; Function Attrs: nounwind uwtable
define internal i32 @read_one_dir(ptr noundef %0, ptr noundef %1) #0 {
  %3 = alloca i32, align 4
  %4 = alloca ptr, align 8
  %5 = alloca ptr, align 8
  %6 = alloca %struct.untracked_cache_dir, align 8
  %7 = alloca ptr, align 8
  %8 = alloca ptr, align 8
  %9 = alloca ptr, align 8
  %10 = alloca ptr, align 8
  %11 = alloca i32, align 4
  %12 = alloca i32, align 4
  %13 = alloca i32, align 4
  store ptr %0, ptr %4, align 8, !tbaa !246
  store ptr %1, ptr %5, align 8, !tbaa !261
  call void @llvm.lifetime.start.p0(i64 112, ptr %6) #12
  call void @llvm.lifetime.start.p0(i64 8, ptr %7) #12
  call void @llvm.lifetime.start.p0(i64 8, ptr %8) #12
  %14 = load ptr, ptr %5, align 8, !tbaa !261
  %15 = getelementptr inbounds nuw %struct.read_data, ptr %14, i32 0, i32 5
  %16 = load ptr, ptr %15, align 8, !tbaa !257
  store ptr %16, ptr %8, align 8, !tbaa !13
  call void @llvm.lifetime.start.p0(i64 8, ptr %9) #12
  %17 = load ptr, ptr %5, align 8, !tbaa !261
  %18 = getelementptr inbounds nuw %struct.read_data, ptr %17, i32 0, i32 6
  %19 = load ptr, ptr %18, align 8, !tbaa !258
  store ptr %19, ptr %9, align 8, !tbaa !13
  call void @llvm.lifetime.start.p0(i64 8, ptr %10) #12
  call void @llvm.lifetime.start.p0(i64 4, ptr %11) #12
  call void @llvm.lifetime.start.p0(i64 4, ptr %12) #12
  call void @llvm.memset.p0.i64(ptr align 8 %6, i8 0, i64 112, i1 false)
  %20 = call i64 @decode_varint(ptr noundef %8)
  %21 = trunc i64 %20 to i32
  store i32 %21, ptr %11, align 4, !tbaa !16
  %22 = load ptr, ptr %8, align 8, !tbaa !13
  %23 = load ptr, ptr %9, align 8, !tbaa !13
  %24 = icmp ugt ptr %22, %23
  br i1 %24, label %25, label %26

25:                                               ; preds = %2
  store i32 -1, ptr %3, align 4
  store i32 1, ptr %13, align 4
  br label %174

26:                                               ; preds = %2
  %27 = getelementptr inbounds nuw %struct.untracked_cache_dir, ptr %6, i32 0, i32 7
  %28 = load i8, ptr %27, align 4
  %29 = and i8 %28, -5
  %30 = or i8 %29, 4
  store i8 %30, ptr %27, align 4
  %31 = load i32, ptr %11, align 4, !tbaa !16
  %32 = getelementptr inbounds nuw %struct.untracked_cache_dir, ptr %6, i32 0, i32 3
  store i32 %31, ptr %32, align 4, !tbaa !16
  %33 = load i32, ptr %11, align 4, !tbaa !16
  %34 = getelementptr inbounds nuw %struct.untracked_cache_dir, ptr %6, i32 0, i32 6
  store i32 %33, ptr %34, align 8, !tbaa !16
  %35 = getelementptr inbounds nuw %struct.untracked_cache_dir, ptr %6, i32 0, i32 6
  %36 = load i32, ptr %35, align 8, !tbaa !16
  %37 = icmp ne i32 %36, 0
  br i1 %37, label %38, label %45

38:                                               ; preds = %26
  %39 = getelementptr inbounds nuw %struct.untracked_cache_dir, ptr %6, i32 0, i32 6
  %40 = load i32, ptr %39, align 8, !tbaa !16
  %41 = zext i32 %40 to i64
  %42 = call i64 @st_mult(i64 noundef 8, i64 noundef %41)
  %43 = call ptr @xmalloc(i64 noundef %42)
  %44 = getelementptr inbounds nuw %struct.untracked_cache_dir, ptr %6, i32 0, i32 1
  store ptr %43, ptr %44, align 8, !tbaa !101
  br label %45

45:                                               ; preds = %38, %26
  %46 = call i64 @decode_varint(ptr noundef %8)
  %47 = trunc i64 %46 to i32
  %48 = getelementptr inbounds nuw %struct.untracked_cache_dir, ptr %6, i32 0, i32 4
  store i32 %47, ptr %48, align 8, !tbaa !16
  %49 = getelementptr inbounds nuw %struct.untracked_cache_dir, ptr %6, i32 0, i32 5
  store i32 %47, ptr %49, align 4, !tbaa !16
  %50 = load ptr, ptr %8, align 8, !tbaa !13
  %51 = load ptr, ptr %9, align 8, !tbaa !13
  %52 = icmp ugt ptr %50, %51
  br i1 %52, label %53, label %54

53:                                               ; preds = %45
  store i32 -1, ptr %3, align 4
  store i32 1, ptr %13, align 4
  br label %174

54:                                               ; preds = %45
  %55 = getelementptr inbounds nuw %struct.untracked_cache_dir, ptr %6, i32 0, i32 4
  %56 = load i32, ptr %55, align 8, !tbaa !16
  %57 = zext i32 %56 to i64
  %58 = call i64 @st_mult(i64 noundef 8, i64 noundef %57)
  %59 = call ptr @xmalloc(i64 noundef %58)
  %60 = getelementptr inbounds nuw %struct.untracked_cache_dir, ptr %6, i32 0, i32 0
  store ptr %59, ptr %60, align 8, !tbaa !246
  %61 = load ptr, ptr %8, align 8, !tbaa !13
  %62 = load ptr, ptr %9, align 8, !tbaa !13
  %63 = load ptr, ptr %8, align 8, !tbaa !13
  %64 = ptrtoint ptr %62 to i64
  %65 = ptrtoint ptr %63 to i64
  %66 = sub i64 %64, %65
  %67 = call ptr @memchr(ptr noundef %61, i32 noundef 0, i64 noundef %66) #13
  store ptr %67, ptr %10, align 8, !tbaa !13
  %68 = load ptr, ptr %10, align 8, !tbaa !13
  %69 = icmp ne ptr %68, null
  br i1 %69, label %70, label %74

70:                                               ; preds = %54
  %71 = load ptr, ptr %10, align 8, !tbaa !13
  %72 = load ptr, ptr %9, align 8, !tbaa !13
  %73 = icmp eq ptr %71, %72
  br i1 %73, label %74, label %75

74:                                               ; preds = %70, %54
  store i32 -1, ptr %3, align 4
  store i32 1, ptr %13, align 4
  br label %174

75:                                               ; preds = %70
  %76 = load ptr, ptr %10, align 8, !tbaa !13
  %77 = load ptr, ptr %8, align 8, !tbaa !13
  %78 = ptrtoint ptr %76 to i64
  %79 = ptrtoint ptr %77 to i64
  %80 = sub i64 %78, %79
  %81 = call i64 @st_add(i64 noundef 112, i64 noundef %80)
  %82 = call i64 @st_add(i64 noundef %81, i64 noundef 1)
  %83 = call ptr @xmalloc(i64 noundef %82)
  store ptr %83, ptr %7, align 8, !tbaa !71
  %84 = load ptr, ptr %4, align 8, !tbaa !246
  store ptr %83, ptr %84, align 8, !tbaa !71
  %85 = load ptr, ptr %7, align 8, !tbaa !71
  call void @llvm.memcpy.p0.p0.i64(ptr align 8 %85, ptr align 8 %6, i64 112, i1 false)
  %86 = load ptr, ptr %7, align 8, !tbaa !71
  %87 = getelementptr inbounds nuw %struct.untracked_cache_dir, ptr %86, i32 0, i32 9
  %88 = getelementptr inbounds [0 x i8], ptr %87, i64 0, i64 0
  %89 = load ptr, ptr %8, align 8, !tbaa !13
  %90 = load ptr, ptr %10, align 8, !tbaa !13
  %91 = load ptr, ptr %8, align 8, !tbaa !13
  %92 = ptrtoint ptr %90 to i64
  %93 = ptrtoint ptr %91 to i64
  %94 = sub i64 %92, %93
  %95 = add nsw i64 %94, 1
  call void @llvm.memcpy.p0.p0.i64(ptr align 4 %88, ptr align 1 %89, i64 %95, i1 false)
  %96 = load ptr, ptr %10, align 8, !tbaa !13
  %97 = getelementptr inbounds i8, ptr %96, i64 1
  store ptr %97, ptr %8, align 8, !tbaa !13
  store i32 0, ptr %12, align 4, !tbaa !16
  br label %98

98:                                               ; preds = %135, %75
  %99 = load i32, ptr %12, align 4, !tbaa !16
  %100 = load ptr, ptr %7, align 8, !tbaa !71
  %101 = getelementptr inbounds nuw %struct.untracked_cache_dir, ptr %100, i32 0, i32 6
  %102 = load i32, ptr %101, align 8, !tbaa !16
  %103 = icmp ult i32 %99, %102
  br i1 %103, label %104, label %138

104:                                              ; preds = %98
  %105 = load ptr, ptr %8, align 8, !tbaa !13
  %106 = load ptr, ptr %9, align 8, !tbaa !13
  %107 = load ptr, ptr %8, align 8, !tbaa !13
  %108 = ptrtoint ptr %106 to i64
  %109 = ptrtoint ptr %107 to i64
  %110 = sub i64 %108, %109
  %111 = call ptr @memchr(ptr noundef %105, i32 noundef 0, i64 noundef %110) #13
  store ptr %111, ptr %10, align 8, !tbaa !13
  %112 = load ptr, ptr %10, align 8, !tbaa !13
  %113 = icmp ne ptr %112, null
  br i1 %113, label %114, label %118

114:                                              ; preds = %104
  %115 = load ptr, ptr %10, align 8, !tbaa !13
  %116 = load ptr, ptr %9, align 8, !tbaa !13
  %117 = icmp eq ptr %115, %116
  br i1 %117, label %118, label %119

118:                                              ; preds = %114, %104
  store i32 -1, ptr %3, align 4
  store i32 1, ptr %13, align 4
  br label %174

119:                                              ; preds = %114
  %120 = load ptr, ptr %8, align 8, !tbaa !13
  %121 = load ptr, ptr %10, align 8, !tbaa !13
  %122 = load ptr, ptr %8, align 8, !tbaa !13
  %123 = ptrtoint ptr %121 to i64
  %124 = ptrtoint ptr %122 to i64
  %125 = sub i64 %123, %124
  %126 = call ptr @xmemdupz(ptr noundef %120, i64 noundef %125)
  %127 = load ptr, ptr %7, align 8, !tbaa !71
  %128 = getelementptr inbounds nuw %struct.untracked_cache_dir, ptr %127, i32 0, i32 1
  %129 = load ptr, ptr %128, align 8, !tbaa !101
  %130 = load i32, ptr %12, align 4, !tbaa !16
  %131 = sext i32 %130 to i64
  %132 = getelementptr inbounds ptr, ptr %129, i64 %131
  store ptr %126, ptr %132, align 8, !tbaa !13
  %133 = load ptr, ptr %10, align 8, !tbaa !13
  %134 = getelementptr inbounds i8, ptr %133, i64 1
  store ptr %134, ptr %8, align 8, !tbaa !13
  br label %135

135:                                              ; preds = %119
  %136 = load i32, ptr %12, align 4, !tbaa !16
  %137 = add nsw i32 %136, 1
  store i32 %137, ptr %12, align 4, !tbaa !16
  br label %98, !llvm.loop !263

138:                                              ; preds = %98
  %139 = load ptr, ptr %7, align 8, !tbaa !71
  %140 = load ptr, ptr %5, align 8, !tbaa !261
  %141 = getelementptr inbounds nuw %struct.read_data, ptr %140, i32 0, i32 1
  %142 = load ptr, ptr %141, align 8, !tbaa !260
  %143 = load ptr, ptr %5, align 8, !tbaa !261
  %144 = getelementptr inbounds nuw %struct.read_data, ptr %143, i32 0, i32 0
  %145 = load i32, ptr %144, align 8, !tbaa !259
  %146 = add nsw i32 %145, 1
  store i32 %146, ptr %144, align 8, !tbaa !259
  %147 = sext i32 %145 to i64
  %148 = getelementptr inbounds ptr, ptr %142, i64 %147
  store ptr %139, ptr %148, align 8, !tbaa !71
  %149 = load ptr, ptr %8, align 8, !tbaa !13
  %150 = load ptr, ptr %5, align 8, !tbaa !261
  %151 = getelementptr inbounds nuw %struct.read_data, ptr %150, i32 0, i32 5
  store ptr %149, ptr %151, align 8, !tbaa !257
  store i32 0, ptr %12, align 4, !tbaa !16
  br label %152

152:                                              ; preds = %170, %138
  %153 = load i32, ptr %12, align 4, !tbaa !16
  %154 = load ptr, ptr %7, align 8, !tbaa !71
  %155 = getelementptr inbounds nuw %struct.untracked_cache_dir, ptr %154, i32 0, i32 4
  %156 = load i32, ptr %155, align 8, !tbaa !16
  %157 = icmp ult i32 %153, %156
  br i1 %157, label %158, label %173

158:                                              ; preds = %152
  %159 = load ptr, ptr %7, align 8, !tbaa !71
  %160 = getelementptr inbounds nuw %struct.untracked_cache_dir, ptr %159, i32 0, i32 0
  %161 = load ptr, ptr %160, align 8, !tbaa !246
  %162 = load i32, ptr %12, align 4, !tbaa !16
  %163 = sext i32 %162 to i64
  %164 = getelementptr inbounds ptr, ptr %161, i64 %163
  %165 = load ptr, ptr %5, align 8, !tbaa !261
  %166 = call i32 @read_one_dir(ptr noundef %164, ptr noundef %165)
  %167 = icmp slt i32 %166, 0
  br i1 %167, label %168, label %169

168:                                              ; preds = %158
  store i32 -1, ptr %3, align 4
  store i32 1, ptr %13, align 4
  br label %174

169:                                              ; preds = %158
  br label %170

170:                                              ; preds = %169
  %171 = load i32, ptr %12, align 4, !tbaa !16
  %172 = add nsw i32 %171, 1
  store i32 %172, ptr %12, align 4, !tbaa !16
  br label %152, !llvm.loop !264

173:                                              ; preds = %152
  store i32 0, ptr %3, align 4
  store i32 1, ptr %13, align 4
  br label %174

174:                                              ; preds = %173, %168, %118, %74, %53, %25
  call void @llvm.lifetime.end.p0(i64 4, ptr %12) #12
  call void @llvm.lifetime.end.p0(i64 4, ptr %11) #12
  call void @llvm.lifetime.end.p0(i64 8, ptr %10) #12
  call void @llvm.lifetime.end.p0(i64 8, ptr %9) #12
  call void @llvm.lifetime.end.p0(i64 8, ptr %8) #12
  call void @llvm.lifetime.end.p0(i64 8, ptr %7) #12
  call void @llvm.lifetime.end.p0(i64 112, ptr %6) #12
  %175 = load i32, ptr %3, align 4
  ret i32 %175
}