; Function Attrs: nounwind uwtable
define internal fastcc range(i32 -1, 1) i32 @read_one_dir(ptr noundef writeonly captures(none) %0, ptr noundef nonnull captures(none) %1) unnamed_addr #0 {
  %3 = alloca ptr, align 8
  call void @llvm.lifetime.start.p0(i64 8, ptr nonnull %3) #27
  %4 = getelementptr inbounds nuw i8, ptr %1, i64 40
  %5 = load ptr, ptr %4, align 8, !tbaa !232
  store ptr %5, ptr %3, align 8, !tbaa !102
  %6 = getelementptr inbounds nuw i8, ptr %1, i64 48
  %7 = load ptr, ptr %6, align 8, !tbaa !233
  %8 = call i64 @decode_varint(ptr noundef nonnull %3) #27
  %9 = trunc i64 %8 to i32
  %10 = load ptr, ptr %3, align 8, !tbaa !102
  %11 = icmp ugt ptr %10, %7
  br i1 %11, label %.loopexit, label %12

12:                                               ; preds = %2
  %.not = icmp eq i32 %9, 0
  br i1 %.not, label %16, label %st_mult.exit

st_mult.exit:                                     ; preds = %12
  %13 = shl i64 %8, 3
  %14 = and i64 %13, 34359738360
  %15 = call ptr @xmalloc(i64 noundef %14) #27
  br label %16

16:                                               ; preds = %st_mult.exit, %12
  %.sroa.5.0 = phi ptr [ %15, %st_mult.exit ], [ null, %12 ]
  %17 = call i64 @decode_varint(ptr noundef nonnull %3) #27
  %18 = trunc i64 %17 to i32
  %19 = load ptr, ptr %3, align 8, !tbaa !102
  %20 = icmp ugt ptr %19, %7
  br i1 %20, label %.loopexit, label %st_mult.exit53

st_mult.exit53:                                   ; preds = %16
  %21 = shl i64 %17, 3
  %22 = and i64 %21, 34359738360
  %23 = call ptr @xmalloc(i64 noundef %22) #27
  %24 = load ptr, ptr %3, align 8, !tbaa !102
  %25 = ptrtoint ptr %7 to i64
  %26 = ptrtoint ptr %24 to i64
  %27 = sub i64 %25, %26
  %28 = call ptr @memchr(ptr noundef %24, i32 noundef 0, i64 noundef %27) #28
  %.not48 = icmp eq ptr %28, null
  %29 = icmp eq ptr %28, %7
  %or.cond = select i1 %.not48, i1 true, i1 %29
  br i1 %or.cond, label %.loopexit, label %30

30:                                               ; preds = %st_mult.exit53
  %31 = ptrtoint ptr %28 to i64
  %32 = sub i64 %31, %26
  %33 = icmp ugt i64 %32, -113
  br i1 %33, label %34, label %st_add.exit

34:                                               ; preds = %30
  call void (ptr, ...) @die(ptr noundef nonnull @.str.33, i64 noundef 112, i64 noundef %32) #29
  unreachable

st_add.exit:                                      ; preds = %30
  %35 = icmp eq i64 %32, -113
  br i1 %35, label %36, label %st_add.exit54

36:                                               ; preds = %st_add.exit
  call void (ptr, ...) @die(ptr noundef nonnull @.str.33, i64 noundef -1, i64 noundef 1) #29
  unreachable

st_add.exit54:                                    ; preds = %st_add.exit
  %37 = add nuw i64 %32, 113
  %38 = call ptr @xmalloc(i64 noundef %37) #27
  store ptr %38, ptr %0, align 8, !tbaa !158
  store ptr %23, ptr %38, align 8
  %.sroa.5.0..0.22.sroa_idx = getelementptr inbounds nuw i8, ptr %38, i64 8
  store ptr %.sroa.5.0, ptr %.sroa.5.0..0.22.sroa_idx, align 8
  %.sroa.6.0..0.22.sroa_idx = getelementptr inbounds nuw i8, ptr %38, i64 16
  call void @llvm.memset.p0.i64(ptr noundef nonnull align 8 dereferenceable(36) %.sroa.6.0..0.22.sroa_idx, i8 0, i64 36, i1 false)
  %.sroa.629.0..0.22.sroa_idx = getelementptr inbounds nuw i8, ptr %38, i64 52
  store i32 %9, ptr %.sroa.629.0..0.22.sroa_idx, align 4
  %.sroa.7.0..0.22.sroa_idx = getelementptr inbounds nuw i8, ptr %38, i64 56
  store i32 %18, ptr %.sroa.7.0..0.22.sroa_idx, align 8
  %.sroa.9.0..0.22.sroa_idx = getelementptr inbounds nuw i8, ptr %38, i64 60
  store i32 %18, ptr %.sroa.9.0..0.22.sroa_idx, align 4
  %.sroa.10.0..0.22.sroa_idx = getelementptr inbounds nuw i8, ptr %38, i64 64
  store i32 %9, ptr %.sroa.10.0..0.22.sroa_idx, align 8
  %.sroa.13.0..0.22.sroa_idx = getelementptr inbounds nuw i8, ptr %38, i64 68
  store i8 4, ptr %.sroa.13.0..0.22.sroa_idx, align 4
  %.sroa.15.0..0.22.sroa_idx = getelementptr inbounds nuw i8, ptr %38, i64 69
  call void @llvm.memset.p0.i64(ptr noundef nonnull align 1 dereferenceable(43) %.sroa.15.0..0.22.sroa_idx, i8 0, i64 43, i1 false)
  %39 = getelementptr inbounds nuw i8, ptr %38, i64 108
  %40 = load ptr, ptr %3, align 8, !tbaa !102
  %41 = ptrtoint ptr %40 to i64
  %42 = add i64 %31, 1
  %43 = sub i64 %42, %41
  call void @llvm.memcpy.p0.p0.i64(ptr nonnull align 4 %39, ptr align 1 %40, i64 %43, i1 false)
  %44 = getelementptr inbounds nuw i8, ptr %28, i64 1
  store ptr %44, ptr %3, align 8, !tbaa !102
  br i1 %.not, label %._crit_edge, label %.lr.ph

.lr.ph:                                           ; preds = %st_add.exit54, %50
  %45 = phi ptr [ %56, %50 ], [ %44, %st_add.exit54 ]
  %indvars.iv = phi i64 [ %indvars.iv.next, %50 ], [ 0, %st_add.exit54 ]
  %46 = ptrtoint ptr %45 to i64
  %47 = sub i64 %25, %46
  %48 = call ptr @memchr(ptr noundef nonnull %45, i32 noundef 0, i64 noundef %47) #28
  %.not49 = icmp eq ptr %48, null
  %49 = icmp eq ptr %48, %7
  %or.cond50 = select i1 %.not49, i1 true, i1 %49
  br i1 %or.cond50, label %.loopexit, label %50

50:                                               ; preds = %.lr.ph
  %51 = ptrtoint ptr %48 to i64
  %52 = sub i64 %51, %46
  %53 = call ptr @xmemdupz(ptr noundef nonnull %45, i64 noundef %52) #27
  %54 = load ptr, ptr %.sroa.5.0..0.22.sroa_idx, align 8, !tbaa !172
  %55 = getelementptr inbounds nuw ptr, ptr %54, i64 %indvars.iv
  store ptr %53, ptr %55, align 8, !tbaa !102
  %56 = getelementptr inbounds nuw i8, ptr %48, i64 1
  store ptr %56, ptr %3, align 8, !tbaa !102
  %indvars.iv.next = add nuw nsw i64 %indvars.iv, 1
  %57 = load i32, ptr %.sroa.10.0..0.22.sroa_idx, align 8, !tbaa !10
  %58 = zext i32 %57 to i64
  %59 = icmp samesign ult i64 %indvars.iv.next, %58
  br i1 %59, label %.lr.ph, label %._crit_edge, !llvm.loop !236

._crit_edge:                                      ; preds = %50, %st_add.exit54
  %60 = phi ptr [ %44, %st_add.exit54 ], [ %56, %50 ]
  %61 = getelementptr inbounds nuw i8, ptr %1, i64 8
  %62 = load ptr, ptr %61, align 8, !tbaa !235
  %63 = load i32, ptr %1, align 8, !tbaa !234
  %64 = add nsw i32 %63, 1
  store i32 %64, ptr %1, align 8, !tbaa !234
  %65 = sext i32 %63 to i64
  %66 = getelementptr inbounds ptr, ptr %62, i64 %65
  store ptr %38, ptr %66, align 8, !tbaa !158
  store ptr %60, ptr %4, align 8, !tbaa !232
  %67 = load i32, ptr %.sroa.7.0..0.22.sroa_idx, align 8, !tbaa !10
  %.not65 = icmp eq i32 %67, 0
  br i1 %.not65, label %.loopexit, label %.lr.ph61

68:                                               ; preds = %.lr.ph61
  %indvars.iv.next69 = add nuw nsw i64 %indvars.iv68, 1
  %69 = load i32, ptr %.sroa.7.0..0.22.sroa_idx, align 8, !tbaa !10
  %70 = zext i32 %69 to i64
  %71 = icmp samesign ult i64 %indvars.iv.next69, %70
  br i1 %71, label %.lr.ph61, label %.loopexit, !llvm.loop !237

.lr.ph61:                                         ; preds = %._crit_edge, %68
  %indvars.iv68 = phi i64 [ %indvars.iv.next69, %68 ], [ 0, %._crit_edge ]
  %72 = load ptr, ptr %38, align 8, !tbaa !175
  %73 = getelementptr inbounds nuw ptr, ptr %72, i64 %indvars.iv68
  %74 = call fastcc i32 @read_one_dir(ptr noundef %73, ptr noundef %1)
  %75 = icmp slt i32 %74, 0
  br i1 %75, label %.loopexit, label %68

.loopexit:                                        ; preds = %.lr.ph, %.lr.ph61, %68, %._crit_edge, %st_mult.exit53, %16, %2
  %.043 = phi i32 [ -1, %2 ], [ -1, %16 ], [ -1, %st_mult.exit53 ], [ 0, %._crit_edge ], [ -1, %.lr.ph61 ], [ 0, %68 ], [ -1, %.lr.ph ]
  call void @llvm.lifetime.end.p0(i64 8, ptr nonnull %3) #27
  ret i32 %.043
}